; Function Attrs: null_pointer_is_valid sspstrong uwtable
define hidden i32 @mapi_dissect_struct_GetHierarchyTable_repl(ptr noundef %0, i32 noundef %1, ptr noundef %2, ptr noundef %3, ptr noundef %4, ptr noundef %5, i32 noundef %6, i32 %7) local_unnamed_addr #0 {
  %9 = alloca ptr, align 8
  %10 = getelementptr inbounds nuw i8, ptr %4, i64 26
  %11 = load i8, ptr %10, align 2, !range !9, !noundef !10
  store i8 1, ptr %10, align 2
  %.not = icmp eq ptr %3, null
  br i1 %.not, label %16, label %12

12:                                               ; preds = %8
  %13 = tail call ptr @proto_tree_add_item(ptr noundef nonnull %3, i32 noundef %6, ptr noundef %0, i32 noundef %1, i32 noundef -1, i32 noundef 0)
  %14 = load i32, ptr @ett_mapi_GetHierarchyTable_repl, align 4
  %15 = tail call ptr @proto_item_add_subtree(ptr noundef %13, i32 noundef %14)
  br label %16

16:                                               ; preds = %12, %8
  %.032 = phi ptr [ %15, %12 ], [ null, %8 ]
  %.0 = phi ptr [ %13, %12 ], [ null, %8 ]
  %17 = load i32, ptr @hf_mapi_GetHierarchyTable_repl_OutputHandleIndex, align 4
  %18 = tail call i32 @PIDL_dissect_uint8(ptr noundef %0, i32 noundef %1, ptr noundef %2, ptr noundef %.032, ptr noundef %4, ptr noundef %5, i32 noundef %17, i32 noundef 0)
  %19 = load i32, ptr @hf_mapi_GetHierarchyTable_repl_ReturnValue, align 4
  %20 = tail call i32 @PIDL_dissect_uint32(ptr noundef %0, i32 noundef %18, ptr noundef %2, ptr noundef %.032, ptr noundef %4, ptr noundef %5, i32 noundef %19, i32 noundef 0)
  call void @llvm.lifetime.start.p0(i64 8, ptr nonnull %9) #6
  store ptr null, ptr %9, align 8
  %.not.i.i = icmp eq ptr %.032, null
  br i1 %.not.i.i, label %.thread20.i.i, label %22

.thread20.i.i:                                    ; preds = %16
  %21 = load i8, ptr %10, align 2, !range !9, !noundef !10
  store i8 1, ptr %10, align 2
  br label %mapi_dissect_element_GetHierarchyTable_repl_repl.exit

22:                                               ; preds = %16
  %23 = load i32, ptr @ett_mapi_GetHierarchyTable_repl_status, align 4
  %24 = call ptr @proto_tree_add_subtree(ptr noundef nonnull %.032, ptr noundef %0, i32 noundef %20, i32 noundef -1, i32 noundef %23, ptr noundef nonnull %9, ptr noundef nonnull @.str.6144)
  %25 = load i32, ptr @hf_mapi_GetHierarchyTable_repl_status_Success, align 4
  %26 = load i8, ptr %10, align 2, !range !9, !noundef !10
  store i8 1, ptr %10, align 2
  %.not.i.i.i.i = icmp eq ptr %24, null
  br i1 %.not.i.i.i.i, label %mapi_dissect_element_GetHierarchyTable_repl_repl.exit, label %27

27:                                               ; preds = %22
  %28 = call ptr @proto_tree_add_item(ptr noundef nonnull %24, i32 noundef %25, ptr noundef %0, i32 noundef %20, i32 noundef -1, i32 noundef 0)
  %29 = load i32, ptr @ett_mapi_GetHierarchyTable_repl_success, align 4
  %30 = call ptr @proto_item_add_subtree(ptr noundef %28, i32 noundef %29)
  br label %mapi_dissect_element_GetHierarchyTable_repl_repl.exit

mapi_dissect_element_GetHierarchyTable_repl_repl.exit: ; preds = %.thread20.i.i, %22, %27
  %31 = phi i8 [ %26, %27 ], [ %26, %22 ], [ %21, %.thread20.i.i ]
  %.020.i.i.i.i = phi ptr [ %30, %27 ], [ null, %22 ], [ null, %.thread20.i.i ]
  %.0.i.i.i.i = phi ptr [ %28, %27 ], [ null, %22 ], [ null, %.thread20.i.i ]
  %32 = load i32, ptr @hf_mapi_GetHierarchyTable_repl_success_RowCount, align 4
  %33 = call i32 @PIDL_dissect_uint32(ptr noundef %0, i32 noundef %20, ptr noundef %2, ptr noundef %.020.i.i.i.i, ptr noundef %4, ptr noundef %5, i32 noundef %32, i32 noundef 0)
  %34 = sub i32 %33, %20
  call void @proto_item_set_len(ptr noundef %.0.i.i.i.i, i32 noundef %34)
  store i8 %31, ptr %10, align 2
  %35 = load ptr, ptr %9, align 8
  call void @proto_item_set_len(ptr noundef %35, i32 noundef %34)
  call void @llvm.lifetime.end.p0(i64 8, ptr nonnull %9) #6
  %36 = sub i32 %33, %1
  call void @proto_item_set_len(ptr noundef %.0, i32 noundef %36)
  store i8 %11, ptr %10, align 2
  ret i32 %33
}